; Function Attrs: nounwind uwtable
define range(i32 -1, 2) i32 @WebPMuxDeleteChunk(ptr noundef %0, ptr noundef %1) local_unnamed_addr #0 {
  %3 = icmp eq ptr %0, null
  %4 = icmp eq ptr %1, null
  %or.cond = or i1 %3, %4
  br i1 %or.cond, label %MuxDeleteAllNamedData.exit, label %5

5:                                                ; preds = %2
  %6 = tail call i32 @ChunkGetTagFromFourCC(ptr noundef nonnull %1) #7
  %7 = tail call i32 @ChunkGetIdFromTag(i32 noundef %6) #7
  switch i32 %7, label %8 [
    i32 3, label %MuxDeleteAllNamedData.exit
    i32 5, label %MuxDeleteAllNamedData.exit
    i32 6, label %MuxDeleteAllNamedData.exit
  ]

8:                                                ; preds = %5
  %9 = tail call ptr @MuxGetChunkListFromId(ptr noundef nonnull %0, i32 noundef %7) #7
  %10 = load ptr, ptr %9, align 8, !tbaa !15
  %.not10.i.i = icmp eq ptr %10, null
  br i1 %.not10.i.i, label %MuxDeleteAllNamedData.exit, label %.lr.ph.i.i

.lr.ph.i.i:                                       ; preds = %8, %18
  %11 = phi ptr [ %19, %18 ], [ %10, %8 ]
  %.012.i.i = phi ptr [ %.1.i.i, %18 ], [ %9, %8 ]
  %.0711.i.i = phi i32 [ %.18.i.i, %18 ], [ 0, %8 ]
  %12 = load i32, ptr %11, align 8, !tbaa !17
  %13 = icmp eq i32 %12, %6
  br i1 %13, label %14, label %16

14:                                               ; preds = %.lr.ph.i.i
  %15 = tail call ptr @ChunkDelete(ptr noundef nonnull %11) #7
  store ptr %15, ptr %.012.i.i, align 8, !tbaa !15
  br label %18

16:                                               ; preds = %.lr.ph.i.i
  %17 = getelementptr inbounds nuw i8, ptr %11, i64 24
  %.pre.i.i = load ptr, ptr %17, align 8, !tbaa !15
  br label %18

18:                                               ; preds = %16, %14
  %19 = phi ptr [ %15, %14 ], [ %.pre.i.i, %16 ]
  %.18.i.i = phi i32 [ 1, %14 ], [ %.0711.i.i, %16 ]
  %.1.i.i = phi ptr [ %.012.i.i, %14 ], [ %17, %16 ]
  %.not.i.i = icmp eq ptr %19, null
  br i1 %.not.i.i, label %MuxDeleteAllNamedData.exit, label %.lr.ph.i.i, !llvm.loop !20

MuxDeleteAllNamedData.exit:                       ; preds = %18, %8, %5, %5, %5, %2
  %.0 = phi i32 [ -1, %2 ], [ -1, %5 ], [ -1, %5 ], [ -1, %5 ], [ 0, %8 ], [ %.18.i.i, %18 ]
  ret i32 %.0
}